target datalayout = "e-m:e-p270:32:32-p271:32:32-p272:64:64-i64:64-i128:128-f80:128-n8:16:32:64-S128"
target triple = "x86_64-pc-linux-gnu"

%struct.pmix_mca_base_framework_t = type { ptr, ptr, ptr, ptr, ptr, ptr, i32, i32, ptr, ptr, i32, i32, %struct.pmix_list_t, %struct.pmix_list_t }
%struct.pmix_list_t = type { %struct.pmix_object_t, %struct.pmix_list_item_t, i64 }
%struct.pmix_object_t = type { %union.pthread_mutex_t, ptr, i32, %struct.pmix_tma }
%union.pthread_mutex_t = type { %struct.__pthread_mutex_s }
%struct.__pthread_mutex_s = type { i32, i32, i32, i32, i32, i16, i16, %struct.__pthread_internal_list }
%struct.__pthread_internal_list = type { ptr, ptr }
%struct.pmix_tma = type { ptr, ptr, ptr, ptr, ptr, ptr, ptr, ptr }
%struct.pmix_list_item_t = type { %struct.pmix_object_t, ptr, ptr, i32 }
%struct.pmix_output_desc_t = type { i8, i8, i32, i8, i32, ptr, ptr, i32, ptr, i32, i8, i8, i8, i8, ptr, i32, i32 }
%struct.pmix_pnet_globals_t = type { %struct.pmix_list_t, %struct.pmix_list_t, %struct.pmix_list_t, i8 }
%struct.pmix_pnet_base_active_module_t = type { %struct.pmix_list_item_t, i32, ptr, ptr }
%struct.pmix_pnet_module_t = type { ptr, ptr, ptr, ptr, ptr, ptr, ptr, ptr, ptr, ptr, ptr, ptr, ptr, ptr }

@pmix_pnet_base_framework = external global %struct.pmix_mca_base_framework_t, align 8
@pmix_output_info = external global [0 x %struct.pmix_output_desc_t], align 8
@pmix_pnet_globals = external global %struct.pmix_pnet_globals_t, align 8
@.str.9 = private unnamed_addr constant [17 x i8] c"DELIVERING TO %s\00", align 1

; Function Attrs: nounwind uwtable
define i32 @pmix_pnet_base_deliver_inventory(ptr noundef %0, i64 noundef %1, ptr noundef %2, i64 noundef %3) #0 {
  %5 = alloca i32, align 4
  %6 = alloca ptr, align 8
  %7 = alloca i64, align 8
  %8 = alloca ptr, align 8
  %9 = alloca i64, align 8
  %10 = alloca ptr, align 8
  %11 = alloca i32, align 4
  %12 = alloca i32, align 4
  store ptr %0, ptr %6, align 8, !tbaa !8
  store i64 %1, ptr %7, align 8, !tbaa !10
  store ptr %2, ptr %8, align 8, !tbaa !8
  store i64 %3, ptr %9, align 8, !tbaa !10
  call void @llvm.lifetime.start.p0(i64 8, ptr %10) #11
  call void @llvm.lifetime.start.p0(i64 4, ptr %11) #11
  %13 = load ptr, ptr getelementptr inbounds nuw (%struct.pmix_list_item_t, ptr getelementptr inbounds nuw (%struct.pmix_list_t, ptr @pmix_pnet_globals, i32 0, i32 1), i32 0, i32 1), align 8, !tbaa !63
  store ptr %13, ptr %10, align 8, !tbaa !65
  br label %14

14:                                               ; preds = %61, %4
  %15 = load ptr, ptr %10, align 8, !tbaa !65
  %16 = icmp ne ptr %15, getelementptr inbounds nuw (%struct.pmix_list_t, ptr @pmix_pnet_globals, i32 0, i32 1)
  br i1 %16, label %17, label %65

17:                                               ; preds = %14
  %18 = load ptr, ptr %10, align 8, !tbaa !65
  %19 = getelementptr inbounds nuw %struct.pmix_pnet_base_active_module_t, ptr %18, i32 0, i32 2
  %20 = load ptr, ptr %19, align 8, !tbaa !67
  %21 = getelementptr inbounds nuw %struct.pmix_pnet_module_t, ptr %20, i32 0, i32 10
  %22 = load ptr, ptr %21, align 8, !tbaa !126
  %23 = icmp ne ptr null, %22
  br i1 %23, label %24, label %60

24:                                               ; preds = %17
  %25 = load i32, ptr getelementptr inbounds nuw (%struct.pmix_mca_base_framework_t, ptr @pmix_pnet_base_framework, i32 0, i32 11), align 4, !tbaa !14
  %26 = icmp sge i32 %25, 0
  br i1 %26, label %27, label %44

27:                                               ; preds = %24
  %28 = load i32, ptr getelementptr inbounds nuw (%struct.pmix_mca_base_framework_t, ptr @pmix_pnet_base_framework, i32 0, i32 11), align 4, !tbaa !14
  %29 = icmp slt i32 %28, 64
  br i1 %29, label %30, label %44

30:                                               ; preds = %27
  %31 = load i32, ptr getelementptr inbounds nuw (%struct.pmix_mca_base_framework_t, ptr @pmix_pnet_base_framework, i32 0, i32 11), align 4, !tbaa !14
  %32 = sext i32 %31 to i64
  %33 = getelementptr inbounds [0 x %struct.pmix_output_desc_t], ptr @pmix_output_info, i64 0, i64 %32
  %34 = getelementptr inbounds nuw %struct.pmix_output_desc_t, ptr %33, i32 0, i32 2
  %35 = load i32, ptr %34, align 4, !tbaa !24
  %36 = icmp sge i32 %35, 5
  br i1 %36, label %37, label %44

37:                                               ; preds = %30
  %38 = load i32, ptr getelementptr inbounds nuw (%struct.pmix_mca_base_framework_t, ptr @pmix_pnet_base_framework, i32 0, i32 11), align 4, !tbaa !14
  %39 = load ptr, ptr %10, align 8, !tbaa !65
  %40 = getelementptr inbounds nuw %struct.pmix_pnet_base_active_module_t, ptr %39, i32 0, i32 2
  %41 = load ptr, ptr %40, align 8, !tbaa !67
  %42 = getelementptr inbounds nuw %struct.pmix_pnet_module_t, ptr %41, i32 0, i32 0
  %43 = load ptr, ptr %42, align 8, !tbaa !124
  call void (i32, ptr, ...) @pmix_output(i32 noundef %38, ptr noundef @.str.9, ptr noundef %43)
  br label %44

44:                                               ; preds = %37, %30, %27, %24
  %45 = load ptr, ptr %10, align 8, !tbaa !65
  %46 = getelementptr inbounds nuw %struct.pmix_pnet_base_active_module_t, ptr %45, i32 0, i32 2
  %47 = load ptr, ptr %46, align 8, !tbaa !67
  %48 = getelementptr inbounds nuw %struct.pmix_pnet_module_t, ptr %47, i32 0, i32 10
  %49 = load ptr, ptr %48, align 8, !tbaa !126
  %50 = load ptr, ptr %6, align 8, !tbaa !8
  %51 = load i64, ptr %7, align 8, !tbaa !10
  %52 = load ptr, ptr %8, align 8, !tbaa !8
  %53 = load i64, ptr %9, align 8, !tbaa !10
  %54 = call i32 %49(ptr noundef %50, i64 noundef %51, ptr noundef %52, i64 noundef %53)
  store i32 %54, ptr %11, align 4, !tbaa !72
  %55 = load i32, ptr %11, align 4, !tbaa !72
  %56 = icmp ne i32 0, %55
  br i1 %56, label %57, label %59

57:                                               ; preds = %44
  %58 = load i32, ptr %11, align 4, !tbaa !72
  store i32 %58, ptr %5, align 4
  store i32 1, ptr %12, align 4
  br label %66

59:                                               ; preds = %44
  br label %60

60:                                               ; preds = %59, %17
  br label %61

61:                                               ; preds = %60
  %62 = load ptr, ptr %10, align 8, !tbaa !65
  %63 = getelementptr inbounds nuw %struct.pmix_list_item_t, ptr %62, i32 0, i32 1
  %64 = load ptr, ptr %63, align 8, !tbaa !50
  store ptr %64, ptr %10, align 8, !tbaa !65
  br label %14, !llvm.loop !127

65:                                               ; preds = %14
  store i32 0, ptr %5, align 4
  store i32 1, ptr %12, align 4
  br label %66

66:                                               ; preds = %65, %57
  call void @llvm.lifetime.end.p0(i64 4, ptr %11) #11
  call void @llvm.lifetime.end.p0(i64 8, ptr %10) #11
  %67 = load i32, ptr %5, align 4
  ret i32 %67
}